; Function Attrs: mustprogress nofree norecurse nosync nounwind willreturn memory(argmem: readwrite) uwtable
define range(i32 -173, 1) i32 @wc_ecc_set_flags(ptr noundef %key, i32 noundef %flags) local_unnamed_addr #11 {
entry:
  %cmp = icmp eq ptr %key, null
  br i1 %cmp, label %return, label %if.end

if.end:                                           ; preds = %entry
  %flags1 = getelementptr inbounds nuw i8, ptr %key, i64 12
  %0 = load i32, ptr %flags1, align 4
  %or = or i32 %0, %flags
  store i32 %or, ptr %flags1, align 4
  br label %return

return:                                           ; preds = %entry, %if.end
  %retval.0 = phi i32 [ 0, %if.end ], [ -173, %entry ]
  ret i32 %retval.0
}